; ModuleID = '57/1685.c'
source_filename = "57/1685.c"
target datalayout = "e-m:e-p270:32:32-p271:32:32-p272:64:64-i64:64-f80:128-n8:16:32:64-S128"
target triple = "x86_64-pc-linux-gnu"

@.str = private unnamed_addr constant [3 x i8] c"%d\00", align 1
@.str.1 = private unnamed_addr constant [3 x i8] c"%s\00", align 1
@.str.2 = private unnamed_addr constant [3 x i8] c"re\00", align 1
@.str.3 = private unnamed_addr constant [3 x i8] c"%c\00", align 1
@.str.4 = private unnamed_addr constant [2 x i8] c"\0A\00", align 1
@.str.5 = private unnamed_addr constant [3 x i8] c"yl\00", align 1
@.str.6 = private unnamed_addr constant [4 x i8] c"gni\00", align 1

; Function Attrs: noinline nounwind uwtable
define dso_local i32 @main(i32 %0, i8** %1) #0 {
  %3 = alloca i32, align 4
  %4 = alloca i32, align 4
  %5 = alloca i8**, align 8
  %6 = alloca i32, align 4
  %7 = alloca i32, align 4
  %8 = alloca i32, align 4
  %9 = alloca i32, align 4
  %10 = alloca i32, align 4
  %11 = alloca [50 x i8], align 16
  %12 = alloca [50 x i8], align 16
  store i32 0, i32* %3, align 4
  store i32 %0, i32* %4, align 4
  store i8** %1, i8*** %5, align 8
  %13 = call i32 (i8*, ...) @__isoc99_scanf(i8* getelementptr inbounds ([3 x i8], [3 x i8]* @.str, i64 0, i64 0), i32* %6)
  store i32 0, i32* %9, align 4
  br label %14

14:                                               ; preds = %133, %2
  %15 = load i32, i32* %9, align 4
  %16 = load i32, i32* %6, align 4
  %17 = icmp slt i32 %15, %16
  br i1 %17, label %18, label %136

18:                                               ; preds = %14
  %19 = bitcast [50 x i8]* %12 to i8*
  call void @llvm.memset.p0i8.i64(i8* align 16 %19, i8 0, i64 50, i1 false)
  %20 = getelementptr inbounds [50 x i8], [50 x i8]* %11, i64 0, i64 0
  %21 = call i32 (i8*, ...) @__isoc99_scanf(i8* getelementptr inbounds ([3 x i8], [3 x i8]* @.str.1, i64 0, i64 0), i8* %20)
  %22 = getelementptr inbounds [50 x i8], [50 x i8]* %11, i64 0, i64 0
  %23 = call i64 @strlen(i8* %22) #4
  %24 = trunc i64 %23 to i32
  store i32 %24, i32* %10, align 4
  %25 = load i32, i32* %10, align 4
  %26 = sub nsw i32 %25, 1
  store i32 %26, i32* %7, align 4
  store i32 0, i32* %8, align 4
  br label %27

27:                                               ; preds = %40, %18
  %28 = load i32, i32* %7, align 4
  %29 = load i32, i32* %10, align 4
  %30 = sub nsw i32 %29, 2
  %31 = icmp sge i32 %28, %30
  br i1 %31, label %32, label %45

32:                                               ; preds = %27
  %33 = load i32, i32* %7, align 4
  %34 = sext i32 %33 to i64
  %35 = getelementptr inbounds [50 x i8], [50 x i8]* %11, i64 0, i64 %34
  %36 = load i8, i8* %35, align 1
  %37 = load i32, i32* %8, align 4
  %38 = sext i32 %37 to i64
  %39 = getelementptr inbounds [50 x i8], [50 x i8]* %12, i64 0, i64 %38
  store i8 %36, i8* %39, align 1
  br label %40

40:                                               ; preds = %32
  %41 = load i32, i32* %7, align 4
  %42 = add nsw i32 %41, -1
  store i32 %42, i32* %7, align 4
  %43 = load i32, i32* %8, align 4
  %44 = add nsw i32 %43, 1
  store i32 %44, i32* %8, align 4
  br label %27

45:                                               ; preds = %27
  %46 = getelementptr inbounds [50 x i8], [50 x i8]* %12, i64 0, i64 0
  %47 = call i32 @strcmp(i8* %46, i8* getelementptr inbounds ([3 x i8], [3 x i8]* @.str.2, i64 0, i64 0)) #4
  %48 = icmp eq i32 %47, 0
  br i1 %48, label %49, label %67

49:                                               ; preds = %45
  store i32 0, i32* %7, align 4
  br label %50

50:                                               ; preds = %62, %49
  %51 = load i32, i32* %7, align 4
  %52 = load i32, i32* %10, align 4
  %53 = sub nsw i32 %52, 3
  %54 = icmp sle i32 %51, %53
  br i1 %54, label %55, label %65

55:                                               ; preds = %50
  %56 = load i32, i32* %7, align 4
  %57 = sext i32 %56 to i64
  %58 = getelementptr inbounds [50 x i8], [50 x i8]* %11, i64 0, i64 %57
  %59 = load i8, i8* %58, align 1
  %60 = sext i8 %59 to i32
  %61 = call i32 (i8*, ...) @printf(i8* getelementptr inbounds ([3 x i8], [3 x i8]* @.str.3, i64 0, i64 0), i32 %60)
  br label %62

62:                                               ; preds = %55
  %63 = load i32, i32* %7, align 4
  %64 = add nsw i32 %63, 1
  store i32 %64, i32* %7, align 4
  br label %50

65:                                               ; preds = %50
  %66 = call i32 (i8*, ...) @printf(i8* getelementptr inbounds ([2 x i8], [2 x i8]* @.str.4, i64 0, i64 0))
  br label %67

67:                                               ; preds = %65, %45
  %68 = getelementptr inbounds [50 x i8], [50 x i8]* %12, i64 0, i64 0
  %69 = call i32 @strcmp(i8* %68, i8* getelementptr inbounds ([3 x i8], [3 x i8]* @.str.5, i64 0, i64 0)) #4
  %70 = icmp eq i32 %69, 0
  br i1 %70, label %71, label %89

71:                                               ; preds = %67
  store i32 0, i32* %7, align 4
  br label %72

72:                                               ; preds = %84, %71
  %73 = load i32, i32* %7, align 4
  %74 = load i32, i32* %10, align 4
  %75 = sub nsw i32 %74, 3
  %76 = icmp sle i32 %73, %75
  br i1 %76, label %77, label %87

77:                                               ; preds = %72
  %78 = load i32, i32* %7, align 4
  %79 = sext i32 %78 to i64
  %80 = getelementptr inbounds [50 x i8], [50 x i8]* %11, i64 0, i64 %79
  %81 = load i8, i8* %80, align 1
  %82 = sext i8 %81 to i32
  %83 = call i32 (i8*, ...) @printf(i8* getelementptr inbounds ([3 x i8], [3 x i8]* @.str.3, i64 0, i64 0), i32 %82)
  br label %84

84:                                               ; preds = %77
  %85 = load i32, i32* %7, align 4
  %86 = add nsw i32 %85, 1
  store i32 %86, i32* %7, align 4
  br label %72

87:                                               ; preds = %72
  %88 = call i32 (i8*, ...) @printf(i8* getelementptr inbounds ([2 x i8], [2 x i8]* @.str.4, i64 0, i64 0))
  br label %89

89:                                               ; preds = %87, %67
  %90 = load i32, i32* %10, align 4
  %91 = sub nsw i32 %90, 1
  store i32 %91, i32* %7, align 4
  store i32 0, i32* %8, align 4
  br label %92

92:                                               ; preds = %105, %89
  %93 = load i32, i32* %7, align 4
  %94 = load i32, i32* %10, align 4
  %95 = sub nsw i32 %94, 3
  %96 = icmp sge i32 %93, %95
  br i1 %96, label %97, label %110

97:                                               ; preds = %92
  %98 = load i32, i32* %7, align 4
  %99 = sext i32 %98 to i64
  %100 = getelementptr inbounds [50 x i8], [50 x i8]* %11, i64 0, i64 %99
  %101 = load i8, i8* %100, align 1
  %102 = load i32, i32* %8, align 4
  %103 = sext i32 %102 to i64
  %104 = getelementptr inbounds [50 x i8], [50 x i8]* %12, i64 0, i64 %103
  store i8 %101, i8* %104, align 1
  br label %105

105:                                              ; preds = %97
  %106 = load i32, i32* %7, align 4
  %107 = add nsw i32 %106, -1
  store i32 %107, i32* %7, align 4
  %108 = load i32, i32* %8, align 4
  %109 = add nsw i32 %108, 1
  store i32 %109, i32* %8, align 4
  br label %92

110:                                              ; preds = %92
  %111 = getelementptr inbounds [50 x i8], [50 x i8]* %12, i64 0, i64 0
  %112 = call i32 @strcmp(i8* %111, i8* getelementptr inbounds ([4 x i8], [4 x i8]* @.str.6, i64 0, i64 0)) #4
  %113 = icmp eq i32 %112, 0
  br i1 %113, label %114, label %132

114:                                              ; preds = %110
  store i32 0, i32* %7, align 4
  br label %115

115:                                              ; preds = %127, %114
  %116 = load i32, i32* %7, align 4
  %117 = load i32, i32* %10, align 4
  %118 = sub nsw i32 %117, 4
  %119 = icmp sle i32 %116, %118
  br i1 %119, label %120, label %130

120:                                              ; preds = %115
  %121 = load i32, i32* %7, align 4
  %122 = sext i32 %121 to i64
  %123 = getelementptr inbounds [50 x i8], [50 x i8]* %11, i64 0, i64 %122
  %124 = load i8, i8* %123, align 1
  %125 = sext i8 %124 to i32
  %126 = call i32 (i8*, ...) @printf(i8* getelementptr inbounds ([3 x i8], [3 x i8]* @.str.3, i64 0, i64 0), i32 %125)
  br label %127

127:                                              ; preds = %120
  %128 = load i32, i32* %7, align 4
  %129 = add nsw i32 %128, 1
  store i32 %129, i32* %7, align 4
  br label %115

130:                                              ; preds = %115
  %131 = call i32 (i8*, ...) @printf(i8* getelementptr inbounds ([2 x i8], [2 x i8]* @.str.4, i64 0, i64 0))
  br label %132

132:                                              ; preds = %130, %110
  br label %133

133:                                              ; preds = %132
  %134 = load i32, i32* %9, align 4
  %135 = add nsw i32 %134, 1
  store i32 %135, i32* %9, align 4
  br label %14

136:                                              ; preds = %14
  ret i32 0
}

declare dso_local i32 @__isoc99_scanf(i8*, ...) #1

; Function Attrs: argmemonly nounwind willreturn
declare void @llvm.memset.p0i8.i64(i8* nocapture writeonly, i8, i64, i1 immarg) #2

; Function Attrs: nounwind readonly
declare dso_local i64 @strlen(i8*) #3

; Function Attrs: nounwind readonly
declare dso_local i32 @strcmp(i8*, i8*) #3

declare dso_local i32 @printf(i8*, ...) #1


!llvm.module.flags = !{!0}
!llvm.ident = !{!1}

!0 = !{i32 1, !"wchar_size", i32 4}
!1 = !{!"clang version 10.0.0-4ubuntu1 "}
